; Function Attrs: mustprogress uwtable
define i64 @_ZNK8QuantLib11CPICapFloor7payDateEv(ptr noundef nonnull align 8 dereferenceable(244) %this) local_unnamed_addr #8 align 2 {
entry:
  %payCalendar_ = getelementptr inbounds nuw i8, ptr %this, i64 184
  %maturity_ = getelementptr inbounds nuw i8, ptr %this, i64 152
  %payConvention_ = getelementptr inbounds nuw i8, ptr %this, i64 200
  %0 = load i32, ptr %payConvention_, align 8, !tbaa !68
  %call = tail call i64 @_ZNK8QuantLib8Calendar6adjustERKNS_4DateENS_21BusinessDayConventionE(ptr noundef nonnull align 8 dereferenceable(16) %payCalendar_, ptr noundef nonnull align 8 dereferenceable(8) %maturity_, i32 noundef %0)
  ret i64 %call
}